; Function Attrs: mustprogress uwtable
define void @_ZNK2cv3reg14MapperGradProj6getMapEv(ptr dead_on_unwind noalias nocapture writable writeonly sret(%"struct.cv::Ptr") align 8 %0, ptr nocapture nonnull readnone align 8 %1) unnamed_addr #4 align 2 personality ptr @__gxx_personality_v0 {
  %3 = tail call noalias noundef nonnull dereferenceable(80) ptr @_Znwm(i64 noundef 80) #17
  invoke void @_ZN2cv3reg9MapProjecC1Ev(ptr noundef nonnull align 8 dereferenceable(80) %3)
          to label %4 unwind label %23

4:                                                ; preds = %2
  store ptr %3, ptr %0, align 8
  %5 = getelementptr inbounds i8, ptr %0, i64 8
  store ptr null, ptr %5, align 8
  %6 = invoke noalias noundef nonnull dereferenceable(24) ptr @_Znwm(i64 noundef 24) #17
          to label %_ZN2cv3PtrINS_3reg3MapEEC2INS1_9MapProjecEEEPT_.exit unwind label %7

7:                                                ; preds = %4
  %8 = landingpad { ptr, i32 }
          catch ptr null
  %9 = extractvalue { ptr, i32 } %8, 0
  %10 = tail call ptr @__cxa_begin_catch(ptr %9) #15
  %11 = load ptr, ptr %3, align 8
  %12 = getelementptr inbounds i8, ptr %11, i64 8
  %13 = load ptr, ptr %12, align 8
  tail call void %13(ptr noundef nonnull align 8 dereferenceable(80) %3) #15
  invoke void @__cxa_rethrow() #18
          to label %19 unwind label %14

14:                                               ; preds = %7
  %15 = landingpad { ptr, i32 }
          cleanup
  invoke void @__cxa_end_catch()
          to label %common.resume unwind label %16

common.resume:                                    ; preds = %14, %23
  %common.resume.op = phi { ptr, i32 } [ %24, %23 ], [ %15, %14 ]
  resume { ptr, i32 } %common.resume.op

16:                                               ; preds = %14
  %17 = landingpad { ptr, i32 }
          catch ptr null
  %18 = extractvalue { ptr, i32 } %17, 0
  tail call void @__clang_call_terminate(ptr %18) #19
  unreachable

19:                                               ; preds = %7
  unreachable

_ZN2cv3PtrINS_3reg3MapEEC2INS1_9MapProjecEEEPT_.exit: ; preds = %4
  %20 = getelementptr inbounds i8, ptr %6, i64 8
  store i32 1, ptr %20, align 8
  %21 = getelementptr inbounds i8, ptr %6, i64 12
  store i32 1, ptr %21, align 4
  store ptr getelementptr inbounds inrange(-16, 40) (i8, ptr @_ZTVSt15_Sp_counted_ptrIPN2cv3reg9MapProjecELN9__gnu_cxx12_Lock_policyE2EE, i64 16), ptr %6, align 8
  %22 = getelementptr inbounds i8, ptr %6, i64 16
  store ptr %3, ptr %22, align 8
  store ptr %6, ptr %5, align 8
  ret void

23:                                               ; preds = %2
  %24 = landingpad { ptr, i32 }
          cleanup
  tail call void @_ZdlPv(ptr noundef nonnull %3) #16
  br label %common.resume
}